target datalayout = "e-m:e-p270:32:32-p271:32:32-p272:64:64-i64:64-i128:128-f80:128-n8:16:32:64-S128"
target triple = "x86_64-pc-linux-gnu"

%struct.pkcs8_priv_key_info_st = type { ptr, ptr, ptr, ptr }

@.str = private unnamed_addr constant [32 x i8] c"../openssl/crypto/asn1/d2i_pr.c\00", align 1
@__func__.d2i_PrivateKey_decoder = private unnamed_addr constant [23 x i8] c"d2i_PrivateKey_decoder\00", align 1
@.str.1 = private unnamed_addr constant [15 x i8] c"PrivateKeyInfo\00", align 1
@.str.2 = private unnamed_addr constant [14 x i8] c"type-specific\00", align 1
@.str.3 = private unnamed_addr constant [4 x i8] c"DER\00", align 1

; Function Attrs: nounwind uwtable
define internal ptr @d2i_PrivateKey_decoder(i32 noundef %0, ptr noundef %1, ptr noundef %2, i64 noundef %3, ptr noundef %4, ptr noundef %5) #0 {
  %7 = alloca ptr, align 8
  %8 = alloca i32, align 4
  %9 = alloca ptr, align 8
  %10 = alloca ptr, align 8
  %11 = alloca i64, align 8
  %12 = alloca ptr, align 8
  %13 = alloca ptr, align 8
  %14 = alloca ptr, align 8
  %15 = alloca i64, align 8
  %16 = alloca ptr, align 8
  %17 = alloca ptr, align 8
  %18 = alloca ptr, align 8
  %19 = alloca ptr, align 8
  %20 = alloca [50 x i8], align 16
  %21 = alloca i32, align 4
  %22 = alloca ptr, align 8
  %23 = alloca ptr, align 8
  %24 = alloca ptr, align 8
  %25 = alloca ptr, align 8
  %26 = alloca i32, align 4
  %27 = alloca i64, align 8
  store i32 %0, ptr %8, align 4, !tbaa !3
  store ptr %1, ptr %9, align 8, !tbaa !7
  store ptr %2, ptr %10, align 8, !tbaa !10
  store i64 %3, ptr %11, align 8, !tbaa !12
  store ptr %4, ptr %12, align 8, !tbaa !14
  store ptr %5, ptr %13, align 8, !tbaa !16
  call void @llvm.lifetime.start.p0(i64 8, ptr %14) #4
  store ptr null, ptr %14, align 8, !tbaa !38
  call void @llvm.lifetime.start.p0(i64 8, ptr %15) #4
  %28 = load i64, ptr %11, align 8, !tbaa !12
  store i64 %28, ptr %15, align 8, !tbaa !12
  call void @llvm.lifetime.start.p0(i64 8, ptr %16) #4
  store ptr null, ptr %16, align 8, !tbaa !18
  call void @llvm.lifetime.start.p0(i64 8, ptr %17) #4
  store ptr null, ptr %17, align 8, !tbaa !18
  call void @llvm.lifetime.start.p0(i64 8, ptr %18) #4
  store ptr %16, ptr %18, align 8, !tbaa !7
  call void @llvm.lifetime.start.p0(i64 8, ptr %19) #4
  store ptr null, ptr %19, align 8, !tbaa !16
  call void @llvm.lifetime.start.p0(i64 50, ptr %20) #4
  call void @llvm.lifetime.start.p0(i64 4, ptr %21) #4
  call void @llvm.lifetime.start.p0(i64 8, ptr %22) #4
  %29 = load ptr, ptr %10, align 8, !tbaa !10
  %30 = load ptr, ptr %29, align 8, !tbaa !16
  store ptr %30, ptr %22, align 8, !tbaa !16
  call void @llvm.lifetime.start.p0(i64 8, ptr %23) #4
  call void @llvm.lifetime.start.p0(i64 8, ptr %24) #4
  call void @llvm.lifetime.start.p0(i64 8, ptr %25) #4
  %31 = load i32, ptr %8, align 4, !tbaa !3
  %32 = icmp ne i32 %31, 0
  br i1 %32, label %33, label %40

33:                                               ; preds = %6
  %34 = load i32, ptr %8, align 4, !tbaa !3
  %35 = call ptr @evp_pkey_type2name(i32 noundef %34)
  store ptr %35, ptr %19, align 8, !tbaa !16
  %36 = load ptr, ptr %19, align 8, !tbaa !16
  %37 = icmp eq ptr %36, null
  br i1 %37, label %38, label %39

38:                                               ; preds = %33
  store ptr null, ptr %7, align 8
  store i32 1, ptr %26, align 4
  br label %146

39:                                               ; preds = %33
  br label %40

40:                                               ; preds = %39, %6
  %41 = call i32 @ERR_set_mark()
  %42 = load ptr, ptr %10, align 8, !tbaa !10
  %43 = load i64, ptr %15, align 8, !tbaa !12
  %44 = call ptr @d2i_PKCS8_PRIV_KEY_INFO(ptr noundef null, ptr noundef %42, i64 noundef %43)
  store ptr %44, ptr %24, align 8, !tbaa !36
  %45 = call i32 @ERR_pop_to_mark()
  %46 = load ptr, ptr %24, align 8, !tbaa !36
  %47 = icmp ne ptr %46, null
  br i1 %47, label %48, label %83

48:                                               ; preds = %40
  call void @llvm.lifetime.start.p0(i64 8, ptr %27) #4
  %49 = load ptr, ptr %24, align 8, !tbaa !36
  %50 = getelementptr inbounds nuw %struct.pkcs8_priv_key_info_st, ptr %49, i32 0, i32 0
  %51 = load ptr, ptr %50, align 8, !tbaa !40
  %52 = call i32 @ASN1_INTEGER_get_int64(ptr noundef %27, ptr noundef %51)
  %53 = icmp ne i32 %52, 0
  br i1 %53, label %54, label %60

54:                                               ; preds = %48
  %55 = load i64, ptr %27, align 8, !tbaa !12
  %56 = icmp ne i64 %55, 0
  br i1 %56, label %57, label %64

57:                                               ; preds = %54
  %58 = load i64, ptr %27, align 8, !tbaa !12
  %59 = icmp ne i64 %58, 1
  br i1 %59, label %60, label %64

60:                                               ; preds = %57, %48
  %61 = load ptr, ptr %22, align 8, !tbaa !16
  %62 = load ptr, ptr %10, align 8, !tbaa !10
  store ptr %61, ptr %62, align 8, !tbaa !16
  call void @ERR_new()
  call void @ERR_set_debug(ptr noundef @.str, i32 noundef 61, ptr noundef @__func__.d2i_PrivateKey_decoder)
  call void (i32, i32, ptr, ...) @ERR_set_error(i32 noundef 13, i32 noundef 203, ptr noundef null)
  %63 = load ptr, ptr %24, align 8, !tbaa !36
  call void @PKCS8_PRIV_KEY_INFO_free(ptr noundef %63)
  store ptr null, ptr %7, align 8
  store i32 1, ptr %26, align 4
  br label %80

64:                                               ; preds = %57, %54
  %65 = load ptr, ptr %19, align 8, !tbaa !16
  %66 = icmp eq ptr %65, null
  br i1 %66, label %67, label %78

67:                                               ; preds = %64
  %68 = load ptr, ptr %24, align 8, !tbaa !36
  %69 = call i32 @PKCS8_pkey_get0(ptr noundef %25, ptr noundef null, ptr noundef null, ptr noundef null, ptr noundef %68)
  %70 = icmp ne i32 %69, 0
  br i1 %70, label %71, label %78

71:                                               ; preds = %67
  %72 = getelementptr inbounds [50 x i8], ptr %20, i64 0, i64 0
  %73 = load ptr, ptr %25, align 8, !tbaa !44
  %74 = call i32 @OBJ_obj2txt(ptr noundef %72, i32 noundef 50, ptr noundef %73, i32 noundef 0)
  %75 = icmp ne i32 %74, 0
  br i1 %75, label %76, label %78

76:                                               ; preds = %71
  %77 = getelementptr inbounds [50 x i8], ptr %20, i64 0, i64 0
  store ptr %77, ptr %19, align 8, !tbaa !16
  br label %78

78:                                               ; preds = %76, %71, %67, %64
  store ptr @.str.1, ptr %23, align 8, !tbaa !16
  %79 = load ptr, ptr %24, align 8, !tbaa !36
  call void @PKCS8_PRIV_KEY_INFO_free(ptr noundef %79)
  store i32 0, ptr %26, align 4
  br label %80

80:                                               ; preds = %78, %60
  call void @llvm.lifetime.end.p0(i64 8, ptr %27) #4
  %81 = load i32, ptr %26, align 4
  switch i32 %81, label %146 [
    i32 0, label %82
  ]

82:                                               ; preds = %80
  br label %84

83:                                               ; preds = %40
  store ptr @.str.2, ptr %23, align 8, !tbaa !16
  br label %84

84:                                               ; preds = %83, %82
  %85 = load ptr, ptr %22, align 8, !tbaa !16
  %86 = load ptr, ptr %10, align 8, !tbaa !10
  store ptr %85, ptr %86, align 8, !tbaa !16
  %87 = load ptr, ptr %9, align 8, !tbaa !7
  %88 = icmp ne ptr %87, null
  br i1 %88, label %89, label %95

89:                                               ; preds = %84
  %90 = load ptr, ptr %9, align 8, !tbaa !7
  %91 = load ptr, ptr %90, align 8, !tbaa !18
  store ptr %91, ptr %17, align 8, !tbaa !18
  %92 = icmp ne ptr %91, null
  br i1 %92, label %93, label %95

93:                                               ; preds = %89
  %94 = load ptr, ptr %9, align 8, !tbaa !7
  store ptr %94, ptr %18, align 8, !tbaa !7
  br label %95

95:                                               ; preds = %93, %89, %84
  %96 = load ptr, ptr %18, align 8, !tbaa !7
  %97 = load ptr, ptr %23, align 8, !tbaa !16
  %98 = load ptr, ptr %19, align 8, !tbaa !16
  %99 = load ptr, ptr %12, align 8, !tbaa !14
  %100 = load ptr, ptr %13, align 8, !tbaa !16
  %101 = call ptr @OSSL_DECODER_CTX_new_for_pkey(ptr noundef %96, ptr noundef @.str.3, ptr noundef %97, ptr noundef %98, i32 noundef 135, ptr noundef %99, ptr noundef %100)
  store ptr %101, ptr %14, align 8, !tbaa !38
  %102 = load ptr, ptr %9, align 8, !tbaa !7
  %103 = icmp ne ptr %102, null
  br i1 %103, label %104, label %107

104:                                              ; preds = %95
  %105 = load ptr, ptr %17, align 8, !tbaa !18
  %106 = load ptr, ptr %9, align 8, !tbaa !7
  store ptr %105, ptr %106, align 8, !tbaa !18
  br label %107

107:                                              ; preds = %104, %95
  %108 = load ptr, ptr %14, align 8, !tbaa !38
  %109 = icmp eq ptr %108, null
  br i1 %109, label %110, label %111

110:                                              ; preds = %107
  br label %138

111:                                              ; preds = %107
  %112 = load ptr, ptr %14, align 8, !tbaa !38
  %113 = load ptr, ptr %10, align 8, !tbaa !10
  %114 = call i32 @OSSL_DECODER_from_data(ptr noundef %112, ptr noundef %113, ptr noundef %15)
  store i32 %114, ptr %21, align 4, !tbaa !3
  %115 = load ptr, ptr %14, align 8, !tbaa !38
  call void @OSSL_DECODER_CTX_free(ptr noundef %115)
  %116 = load i32, ptr %21, align 4, !tbaa !3
  %117 = icmp ne i32 %116, 0
  br i1 %117, label %118, label %137

118:                                              ; preds = %111
  %119 = load ptr, ptr %18, align 8, !tbaa !7
  %120 = load ptr, ptr %119, align 8, !tbaa !18
  %121 = icmp ne ptr %120, null
  br i1 %121, label %122, label %137

122:                                              ; preds = %118
  %123 = load ptr, ptr %18, align 8, !tbaa !7
  %124 = load ptr, ptr %123, align 8, !tbaa !18
  %125 = call i32 @evp_keymgmt_util_has(ptr noundef %124, i32 noundef 1)
  %126 = icmp ne i32 %125, 0
  br i1 %126, label %127, label %137

127:                                              ; preds = %122
  %128 = load ptr, ptr %9, align 8, !tbaa !7
  %129 = icmp ne ptr %128, null
  br i1 %129, label %130, label %134

130:                                              ; preds = %127
  %131 = load ptr, ptr %18, align 8, !tbaa !7
  %132 = load ptr, ptr %131, align 8, !tbaa !18
  %133 = load ptr, ptr %9, align 8, !tbaa !7
  store ptr %132, ptr %133, align 8, !tbaa !18
  br label %134

134:                                              ; preds = %130, %127
  %135 = load ptr, ptr %18, align 8, !tbaa !7
  %136 = load ptr, ptr %135, align 8, !tbaa !18
  store ptr %136, ptr %7, align 8
  store i32 1, ptr %26, align 4
  br label %146

137:                                              ; preds = %122, %118, %111
  br label %138

138:                                              ; preds = %137, %110
  %139 = load ptr, ptr %18, align 8, !tbaa !7
  %140 = load ptr, ptr %9, align 8, !tbaa !7
  %141 = icmp ne ptr %139, %140
  br i1 %141, label %142, label %145

142:                                              ; preds = %138
  %143 = load ptr, ptr %18, align 8, !tbaa !7
  %144 = load ptr, ptr %143, align 8, !tbaa !18
  call void @EVP_PKEY_free(ptr noundef %144)
  br label %145

145:                                              ; preds = %142, %138
  store ptr null, ptr %7, align 8
  store i32 1, ptr %26, align 4
  br label %146

146:                                              ; preds = %145, %134, %80, %38
  call void @llvm.lifetime.end.p0(i64 8, ptr %25) #4
  call void @llvm.lifetime.end.p0(i64 8, ptr %24) #4
  call void @llvm.lifetime.end.p0(i64 8, ptr %23) #4
  call void @llvm.lifetime.end.p0(i64 8, ptr %22) #4
  call void @llvm.lifetime.end.p0(i64 4, ptr %21) #4
  call void @llvm.lifetime.end.p0(i64 50, ptr %20) #4
  call void @llvm.lifetime.end.p0(i64 8, ptr %19) #4
  call void @llvm.lifetime.end.p0(i64 8, ptr %18) #4
  call void @llvm.lifetime.end.p0(i64 8, ptr %17) #4
  call void @llvm.lifetime.end.p0(i64 8, ptr %16) #4
  call void @llvm.lifetime.end.p0(i64 8, ptr %15) #4
  call void @llvm.lifetime.end.p0(i64 8, ptr %14) #4
  %147 = load ptr, ptr %7, align 8
  ret ptr %147
}