; Function Attrs: nounwind uwtable
define internal fastcc ptr @d2i_PrivateKey_decoder(i32 noundef %0, ptr noundef %1, ptr noundef %2, i64 noundef %3, ptr noundef %4, ptr noundef %5) unnamed_addr #0 {
  %7 = alloca i64, align 8
  %8 = alloca ptr, align 8
  %9 = alloca [50 x i8], align 16
  %10 = alloca ptr, align 8
  %11 = alloca i64, align 8
  call void @llvm.lifetime.start.p0(i64 8, ptr nonnull %7) #3
  store i64 %3, ptr %7, align 8, !tbaa !29
  call void @llvm.lifetime.start.p0(i64 8, ptr nonnull %8) #3
  store ptr null, ptr %8, align 8, !tbaa !8
  call void @llvm.lifetime.start.p0(i64 50, ptr nonnull %9) #3
  %12 = load ptr, ptr %2, align 8, !tbaa !3
  call void @llvm.lifetime.start.p0(i64 8, ptr nonnull %10) #3
  %.not = icmp eq i32 %0, 0
  br i1 %.not, label %16, label %13

13:                                               ; preds = %6
  %14 = tail call ptr @evp_pkey_type2name(i32 noundef %0) #3
  %15 = icmp eq ptr %14, null
  br i1 %15, label %51, label %16

16:                                               ; preds = %13, %6
  %.047 = phi ptr [ %14, %13 ], [ null, %6 ]
  %17 = tail call i32 @ERR_set_mark() #3
  %18 = tail call ptr @d2i_PKCS8_PRIV_KEY_INFO(ptr noundef null, ptr noundef nonnull %2, i64 noundef %3) #3
  %19 = tail call i32 @ERR_pop_to_mark() #3
  %.not59 = icmp eq ptr %18, null
  br i1 %.not59, label %32, label %20

20:                                               ; preds = %16
  call void @llvm.lifetime.start.p0(i64 8, ptr nonnull %11) #3
  %21 = load ptr, ptr %18, align 8, !tbaa !30
  %22 = call i32 @ASN1_INTEGER_get_int64(ptr noundef nonnull %11, ptr noundef %21) #3
  %.not60 = icmp eq i32 %22, 0
  %23 = load i64, ptr %11, align 8
  %or.cond = icmp ugt i64 %23, 1
  %or.cond69 = select i1 %.not60, i1 true, i1 %or.cond
  br i1 %or.cond69, label %31, label %24

24:                                               ; preds = %20
  %25 = icmp eq ptr %.047, null
  br i1 %25, label %26, label %.thread

26:                                               ; preds = %24
  %27 = call i32 @PKCS8_pkey_get0(ptr noundef nonnull %10, ptr noundef null, ptr noundef null, ptr noundef null, ptr noundef nonnull %18) #3
  %.not61 = icmp eq i32 %27, 0
  br i1 %.not61, label %.thread, label %28

28:                                               ; preds = %26
  %29 = load ptr, ptr %10, align 8, !tbaa !34
  %30 = call i32 @OBJ_obj2txt(ptr noundef nonnull %9, i32 noundef 50, ptr noundef %29, i32 noundef 0) #3
  %.not62 = icmp eq i32 %30, 0
  %spec.select = select i1 %.not62, ptr null, ptr %9
  br label %.thread

.thread:                                          ; preds = %24, %26, %28
  %.2 = phi ptr [ null, %26 ], [ %.047, %24 ], [ %spec.select, %28 ]
  call void @PKCS8_PRIV_KEY_INFO_free(ptr noundef nonnull %18) #3
  call void @llvm.lifetime.end.p0(i64 8, ptr nonnull %11) #3
  br label %32

31:                                               ; preds = %20
  store ptr %12, ptr %2, align 8, !tbaa !3
  call void @ERR_new() #3
  call void @ERR_set_debug(ptr noundef nonnull @.str, i32 noundef 61, ptr noundef nonnull @__func__.d2i_PrivateKey_decoder) #3
  call void (i32, i32, ptr, ...) @ERR_set_error(i32 noundef 13, i32 noundef 203, ptr noundef null) #3
  call void @PKCS8_PRIV_KEY_INFO_free(ptr noundef nonnull %18) #3
  call void @llvm.lifetime.end.p0(i64 8, ptr nonnull %11) #3
  br label %51

32:                                               ; preds = %.thread, %16
  %.3 = phi ptr [ %.047, %16 ], [ %.2, %.thread ]
  %.145 = phi ptr [ @.str.2, %16 ], [ @.str.1, %.thread ]
  store ptr %12, ptr %2, align 8, !tbaa !3
  %.not63 = icmp eq ptr %1, null
  br i1 %.not63, label %.thread74, label %34

.thread74:                                        ; preds = %32
  %33 = call ptr @OSSL_DECODER_CTX_new_for_pkey(ptr noundef nonnull %8, ptr noundef nonnull @.str.3, ptr noundef nonnull %.145, ptr noundef %.3, i32 noundef 135, ptr noundef %4, ptr noundef %5) #3
  br label %37

34:                                               ; preds = %32
  %35 = load ptr, ptr %1, align 8, !tbaa !8
  %.not64 = icmp eq ptr %35, null
  %spec.select70 = select i1 %.not64, ptr %8, ptr %1
  %36 = call ptr @OSSL_DECODER_CTX_new_for_pkey(ptr noundef nonnull %spec.select70, ptr noundef nonnull @.str.3, ptr noundef nonnull %.145, ptr noundef %.3, i32 noundef 135, ptr noundef %4, ptr noundef %5) #3
  store ptr %35, ptr %1, align 8, !tbaa !8
  br label %37

37:                                               ; preds = %.thread74, %34
  %38 = phi ptr [ %33, %.thread74 ], [ %36, %34 ]
  %.04977 = phi ptr [ %8, %.thread74 ], [ %spec.select70, %34 ]
  %39 = icmp eq ptr %38, null
  br i1 %39, label %48, label %40

40:                                               ; preds = %37
  %41 = call i32 @OSSL_DECODER_from_data(ptr noundef nonnull %38, ptr noundef nonnull %2, ptr noundef nonnull %7) #3
  call void @OSSL_DECODER_CTX_free(ptr noundef nonnull %38) #3
  %.not65 = icmp eq i32 %41, 0
  br i1 %.not65, label %48, label %42

42:                                               ; preds = %40
  %43 = load ptr, ptr %.04977, align 8, !tbaa !8
  %.not66 = icmp eq ptr %43, null
  br i1 %.not66, label %48, label %44

44:                                               ; preds = %42
  %45 = call i32 @evp_keymgmt_util_has(ptr noundef nonnull %43, i32 noundef 1) #3
  %.not67 = icmp eq i32 %45, 0
  br i1 %.not67, label %48, label %46

46:                                               ; preds = %44
  %.pre = load ptr, ptr %.04977, align 8, !tbaa !8
  br i1 %.not63, label %51, label %47

47:                                               ; preds = %46
  store ptr %.pre, ptr %1, align 8, !tbaa !8
  br label %51

48:                                               ; preds = %40, %42, %44, %37
  %.not68 = icmp eq ptr %.04977, %1
  br i1 %.not68, label %51, label %49

49:                                               ; preds = %48
  %50 = load ptr, ptr %.04977, align 8, !tbaa !8
  call void @EVP_PKEY_free(ptr noundef %50) #3
  br label %51

51:                                               ; preds = %46, %47, %31, %48, %49, %13
  %.043 = phi ptr [ null, %31 ], [ null, %13 ], [ null, %49 ], [ null, %48 ], [ %.pre, %47 ], [ %.pre, %46 ]
  call void @llvm.lifetime.end.p0(i64 8, ptr nonnull %10) #3
  call void @llvm.lifetime.end.p0(i64 50, ptr nonnull %9) #3
  call void @llvm.lifetime.end.p0(i64 8, ptr nonnull %8) #3
  call void @llvm.lifetime.end.p0(i64 8, ptr nonnull %7) #3
  ret ptr %.043
}